ccopy_reg
_reconstructor
p0
(cpandas.core.frame
DataFrame
p1
c__builtin__
object
p2
Ntp3
Rp4
(dp5
S'_metadata'
p6
(lp7
sS'_typ'
p8
S'dataframe'
p9
sS'_data'
p10
g0
(cpandas.core.internals
BlockManager
p11
g2
Ntp12
Rp13
((lp14
cpandas.core.indexes.base
_new_Index
p15
(cpandas.core.indexes.base
Index
p16
(dp17
S'data'
p18
cnumpy.core.multiarray
_reconstruct
p19
(cnumpy
ndarray
p20
(I0
tp21
S'b'
p22
tp23
Rp24
(I1
(I145
tp25
cnumpy
dtype
p26
(S'O8'
p27
I0
I1
tp28
Rp29
(I3
S'|'
p30
NNNI-1
I-1
I63
tp31
bI00
(lp32
S'ALLEN PHILLIP K'
p33
aS'BADUM JAMES P'
p34
aS'BANNANTINE JAMES M'
p35
aS'BAXTER JOHN C'
p36
aS'BAY FRANKLIN R'
p37
aS'BAZELIDES PHILIP J'
p38
aS'BECK SALLY W'
p39
aS'BELDEN TIMOTHY N'
p40
aS'BELFER ROBERT'
p41
aS'BERBERIAN DAVID'
p42
aS'BERGSIEKER RICHARD P'
p43
aS'BHATNAGAR SANJAY'
p44
aS'BIBI PHILIPPE A'
p45
aS'BLACHMAN JEREMY M'
p46
aS'BLAKE JR. NORMAN P'
p47
aS'BOWEN JR RAYMOND M'
p48
aS'BROWN MICHAEL'
p49
aS'BUCHANAN HAROLD G'
p50
aS'BUTTS ROBERT H'
p51
aS'BUY RICHARD B'
p52
aS'CALGER CHRISTOPHER F'
p53
aS'CARTER REBECCA C'
p54
aS'CAUSEY RICHARD A'
p55
aS'CHAN RONNIE'
p56
aS'CHRISTODOULOU DIOMEDES'
p57
aS'CLINE KENNETH W'
p58
aS'COLWELL WESLEY'
p59
aS'CORDES WILLIAM R'
p60
aS'COX DAVID'
p61
aS'CUMBERLAND MICHAEL S'
p62
aS'DEFFNER JOSEPH M'
p63
aS'DELAINEY DAVID W'
p64
aS'DERRICK JR. JAMES V'
p65
aS'DETMERING TIMOTHY J'
p66
aS'DIETRICH JANET R'
p67
aS'DIMICHELE RICHARD G'
p68
aS'DODSON KEITH'
p69
aS'DONAHUE JR JEFFREY M'
p70
aS'DUNCAN JOHN H'
p71
aS'DURAN WILLIAM D'
p72
aS'ECHOLS JOHN B'
p73
aS'ELLIOTT STEVEN'
p74
aS'FALLON JAMES B'
p75
aS'FASTOW ANDREW S'
p76
aS'FITZGERALD JAY L'
p77
aS'FOWLER PEGGY'
p78
aS'FOY JOE'
p79
aS'FREVERT MARK A'
p80
aS'FUGH JOHN L'
p81
aS'GAHN ROBERT S'
p82
aS'GARLAND C KEVIN'
p83
aS'GATHMANN WILLIAM D'
p84
aS'GIBBS DANA R'
p85
aS'GILLIS JOHN'
p86
aS'GLISAN JR BEN F'
p87
aS'GOLD JOSEPH'
p88
aS'GRAMM WENDY L'
p89
aS'GRAY RODNEY'
p90
aS'HAEDICKE MARK E'
p91
aS'HANNON KEVIN P'
p92
aS'HAUG DAVID L'
p93
aS'HAYES ROBERT E'
p94
aS'HAYSLETT RODERICK J'
p95
aS'HERMANN ROBERT J'
p96
aS'HICKERSON GARY J'
p97
aS'HIRKO JOSEPH'
p98
aS'HORTON STANLEY C'
p99
aS'HUGHES JAMES A'
p100
aS'HUMPHREY GENE E'
p101
aS'IZZO LAWRENCE L'
p102
aS'JACKSON CHARLENE R'
p103
aS'JAEDICKE ROBERT'
p104
aS'KAMINSKI WINCENTY J'
p105
aS'KEAN STEVEN J'
p106
aS'KISHKILL JOSEPH G'
p107
aS'KITCHEN LOUISE'
p108
aS'KOENIG MARK E'
p109
aS'KOPPER MICHAEL J'
p110
aS'LAVORATO JOHN J'
p111
aS'LAY KENNETH L'
p112
aS'LEFF DANIEL P'
p113
aS'LEMAISTRE CHARLES'
p114
aS'LEWIS RICHARD'
p115
aS'LINDHOLM TOD A'
p116
aS'LOCKHART EUGENE E'
p117
aS'LOWRY CHARLES P'
p118
aS'MARTIN AMANDA K'
p119
aS'MCCARTY DANNY J'
p120
aS'MCCLELLAN GEORGE'
p121
aS'MCCONNELL MICHAEL S'
p122
aS'MCDONALD REBECCA'
p123
aS'MCMAHON JEFFREY'
p124
aS'MENDELSOHN JOHN'
p125
aS'METTS MARK'
p126
aS'MEYER JEROME J'
p127
aS'MEYER ROCKFORD G'
p128
aS'MORAN MICHAEL P'
p129
aS'MORDAUNT KRISTINA M'
p130
aS'MULLER MARK S'
p131
aS'MURRAY JULIA H'
p132
aS'NOLES JAMES L'
p133
aS'OLSON CINDY K'
p134
aS'OVERDYKE JR JERE C'
p135
aS'PAI LOU L'
p136
aS'PEREIRA PAULO V. FERRAZ'
p137
aS'PICKERING MARK R'
p138
aS'PIPER GREGORY F'
p139
aS'PIRO JIM'
p140
aS'POWERS WILLIAM'
p141
aS'PRENTICE JAMES'
p142
aS'REDMOND BRIAN L'
p143
aS'REYNOLDS LAWRENCE'
p144
aS'RICE KENNETH D'
p145
aS'RIEKER PAULA H'
p146
aS'SAVAGE FRANK'
p147
aS'SCRIMSHAW MATTHEW'
p148
aS'SHANKMAN JEFFREY A'
p149
aS'SHAPIRO RICHARD S'
p150
aS'SHARP VICTORIA T'
p151
aS'SHELBY REX'
p152
aS'SHERRICK JEFFREY B'
p153
aS'SHERRIFF JOHN R'
p154
aS'SKILLING JEFFREY K'
p155
aS'STABLER FRANK'
p156
aS'SULLIVAN-SHAKLOVITZ COLLEEN'
p157
aS'SUNDE MARTIN'
p158
aS'TAYLOR MITCHELL S'
p159
aS'THE TRAVEL AGENCY IN THE PARK'
p160
aS'THORN TERENCE H'
p161
aS'TILNEY ELIZABETH A'
p162
aS'UMANOFF ADAM S'
p163
aS'URQUHART JOHN A'
p164
aS'WAKEHAM JOHN'
p165
aS'WALLS JR ROBERT H'
p166
aS'WALTERS GARETH W'
p167
aS'WASAFF GEORGE'
p168
aS'WESTFAHL RICHARD K'
p169
aS'WHALEY DAVID A'
p170
aS'WHALLEY LAWRENCE G'
p171
aS'WHITE JR THOMAS E'
p172
aS'WINOKUR JR. HERBERT S'
p173
aS'WODRASKA JOHN'
p174
aS'WROBEL BRUCE'
p175
aS'YEAGER F SCOTT'
p176
aS'YEAP SOON'
p177
atp178
bsS'name'
p179
Nstp180
Rp181
ag15
(g16
(dp182
g18
g19
(g20
(I0
tp183
g22
tp184
Rp185
(I1
(I25
tp186
g29
I00
(lp187
S'bonus'
p188
aS'deferral_payments'
p189
aS'deferred_income'
p190
aS'director_fees'
p191
aS'email_address'
p192
aS'exercised_stock_options'
p193
aS'expenses'
p194
aS'from_messaages'
p195
aS'from_messages'
p196
aS'from_poi_ratio'
p197
aS'from_poi_to_this_person'
p198
aS'from_this_person_to_poi'
p199
aS'loan_advances'
p200
aS'long_term_incentive'
p201
aS'other'
p202
aS'poi'
p203
aS'restricted_stock'
p204
aS'restricted_stock_deferred'
p205
aS'salary'
p206
aS'shared_receipt_with_poi'
p207
aS'to_messaages'
p208
aS'to_messages'
p209
aS'to_poi_ratio'
p210
aS'total_payments'
p211
aS'total_stock_value'
p212
atp213
bsg179
Nstp214
Rp215
a(lp216
g19
(g20
(I0
tp217
g22
tp218
Rp219
(I1
(I145
I25
tp220
g29
I00
(lp221
I4175000
aI2869717
aI-3081055
aI0
aS'phillip.allen@enron.com'
p222
aI1729541
aI13868
aF2195.0
aI2195
aF0.016195727084769126
aF47.0
aF65.0
aI0
aI304805
aI152
aI00
aI126027
aI-126027
aI201955
aI1407
aF2902.0
aI2902
aF0.029612756264236904
aI4484442
aI1729541
aI0
aI178980
aI0
aI0
aI0
aI257817
aI3486
aI0
aI0
aI0
aI0
aI0
aI0
aI0
aI0
aI00
aI0
aI0
aI0
aI0
aI0
aI0
aI0
aI182466
aI257817
aI0
aI0
aI-5104
aI0
aS'james.bannantine@enron.com'
p223
aI4046157
aI56301
aF29.0
aI29
aF0.06890459363957598
aF39.0
aF0.0
aI0
aI0
aI864523
aI00
aI1757552
aI-560222
aI477
aI465
aF566.0
aI566
aI0
aI916197
aI5243487
aI1200000
aI1295738
aI-1386055
aI0
aI0
aI6680544
aI11200
aI0
aI0
aI0
aI0
aI0
aI0
aI1586055
aI2660303
aI00
aI3942714
aI0
aI267102
aI0
aI0
aI0
aI0
aI5634343
aI10623258
aI400000
aI260455
aI-201641
aI0
aS'frank.bay@enron.com'
p224
aI0
aI129142
aI0
aI0
aI0
aI0
aI0
aI0
aI0
aI69
aI00
aI145796
aI-82782
aI239671
aI0
aI0
aI0
aI0
aI827696
aI63014
aI0
aI684694
aI0
aI0
aI0
aI1599641
aI0
aI0
aI0
aI0
aI0
aI0
aI0
aI93750
aI874
aI00
aI0
aI0
aI80818
aI0
aI0
aI0
aI0
aI860136
aI1599641
aI700000
aI0
aI0
aI0
aS'sally.beck@enron.com'
p225
aI0
aI37172
aF4343.0
aI4343
aF0.01968557758031442
aF144.0
aF386.0
aI0
aI0
aI566
aI00
aI126027
aI0
aI231330
aI2639
aF7315.0
aI7315
aF0.08887865530739121
aI969068
aI126027
aI5249999
aI2144013
aI-2334434
aI0
aS'tim.belden@enron.com'
p226
aI953136
aI17355
aF484.0
aI484
aF0.028532098610937303
aF228.0
aF108.0
aI0
aI0
aI210698
aI01
aI157569
aI0
aI213999
aI5521
aF7991.0
aI7991
aF0.2231404958677686
aI5501630
aI1110705
aI0
aI-102500
aI0
aI3285
aI0
aI3285
aI0
aI0
aI0
aI0
aI0
aI0
aI0
aI0
aI0
aI00
aI0
aI44093
aI0
aI0
aI0
aI0
aI0
aI102500
aI-44093
aI0
aI0
aI0
aI0
aS'david.berberian@enron.com'
p227
aI1624396
aI11892
aI0
aI0
aI0
aI0
aI0
aI0
aI0
aI0
aI00
aI869220
aI0
aI216582
aI0
aI0
aI0
aI0
aI228474
aI2493616
aI250000
aI0
aI-485813
aI0
aS'rick.bergsieker@enron.com'
p228
aI0
aI59175
aF59.0
aI59
aF0.010443864229765013
aF4.0
aF0.0
aI0
aI180250
aI427316
aI00
aI659249
aI0
aI187922
aI233
aF383.0
aI383
aI0
aI618850
aI659249
aI0
aI0
aI0
aI137864
aS'sanjay.bhatnagar@enron.com'
p229
aI2604490
aI0
aF29.0
aI29
aI0
aF0.0
aF1.0
aI0
aI0
aI137864
aI00
aI-2604490
aI15456290
aI0
aI463
aF523.0
aI523
aF0.034482758620689655
aI15456290
aI0
aI1000000
aI0
aI0
aI0
aS'philippe.bibi@enron.com'
p230
aI1465734
aI38559
aF40.0
aI40
aF0.01431238332296204
aF23.0
aF8.0
aI0
aI369721
aI425688
aI00
aI378082
aI0
aI213625
aI1336
aF1607.0
aI1607
aF0.2
aI2047593
aI1843816
aI850000
aI0
aI0
aI0
aS'jeremy.blachman@enron.com'
p231
aI765313
aI84208
aF14.0
aI14
aF0.010101010101010102
aF25.0
aF2.0
aI0
aI831809
aI272
aI00
aI189041
aI0
aI248546
aI2326
aF2475.0
aI2475
aF0.14285714285714285
aI2014835
aI954354
aI0
aI0
aI-113784
aI113784
aI0
aI0
aI1279
aI0
aI0
aI0
aI0
aI0
aI0
aI0
aI0
aI00
aI0
aI0
aI0
aI0
aI0
aI0
aI0
aI1279
aI0
aI1350000
aI0
aI-833
aI0
aS'raymond.bowen@enron.com'
p232
aI0
aI65907
aF27.0
aI27
aF0.07534983853606028
aF140.0
aF15.0
aI0
aI974293
aI1621
aI01
aI252055
aI0
aI278601
aI1593
aF1858.0
aI1858
aF0.5555555555555556
aI2669589
aI252055
aI0
aI0
aI0
aI0
aS'michael.brown@enron.com'
p233
aI0
aI49288
aF41.0
aI41
aF0.008748317631224764
aF13.0
aF1.0
aI0
aI0
aI0
aI00
aI0
aI0
aI0
aI761
aF1486.0
aI1486
aF0.024390243902439025
aI49288
aI0
aI500000
aI0
aI0
aI0
aS'john.buchanan@enron.com'
p234
aI825464
aI600
aF125.0
aI125
aI0
aF0.0
aF0.0
aI0
aI304805
aI1215
aI00
aI189041
aI0
aI248017
aI23
aF1088.0
aI1088
aI0
aI1054637
aI1014505
aI750000
aI0
aI-75000
aI0
aS'bob.butts@enron.com'
p235
aI0
aI9410
aI0
aI0
aI0
aI0
aI0
aI0
aI175000
aI150656
aI00
aI417619
aI0
aI261516
aI0
aI0
aI0
aI0
aI1271582
aI417619
aI900000
aI649584
aI-694862
aI0
aS'rick.buy@enron.com'
p236
aI2542813
aI0
aF1053.0
aI1053
aF0.04428044280442804
aF156.0
aF71.0
aI0
aI769862
aI400572
aI00
aI901657
aI0
aI330546
aI2333
aF3523.0
aI3523
aF0.06742640075973409
aI2355702
aI3444470
aI1250000
aI0
aI-262500
aI0
aS'christopher.calger@enron.com'
p237
aI0
aI35818
aF144.0
aI144
aF0.07659738260200154
aF199.0
aF25.0
aI0
aI375304
aI486
aI01
aI126027
aI0
aI240189
aI2188
aF2598.0
aI2598
aF0.1736111111111111
aI1639297
aI126027
aI300000
aI0
aI-159792
aI0
aS'rebecca.carter@enron.com'
p238
aI0
aI0
aF15.0
aI15
aF0.09294871794871795
aF29.0
aF7.0
aI0
aI75000
aI540
aI00
aI307301
aI-307301
aI261809
aI196
aF312.0
aI312
aF0.4666666666666667
aI477557
aI0
aI1000000
aI0
aI-235000
aI0
aS'richard.causey@enron.com'
p239
aI0
aI30674
aF49.0
aI49
aF0.0306553911205074
aF58.0
aF12.0
aI0
aI350000
aI307895
aI01
aI2502063
aI0
aI415189
aI1585
aF1892.0
aI1892
aF0.24489795918367346
aI1868758
aI2502063
aI0
aI0
aI-98784
aI98784
aI0
aI0
aI0
aI0
aI0
aI0
aI0
aI0
aI0
aI0
aI0
aI00
aI32460
aI-32460
aI0
aI0
aI0
aI0
aI0
aI0
aI0
aI0
aI0
aI0
aI0
aS'diomedes.christodoulou@enron.com'
p240
aI5127155
aI0
aI0
aI0
aI0
aI0
aI0
aI0
aI0
aI0
aI00
aI950730
aI0
aI0
aI0
aI0
aI0
aI0
aI0
aI6077885
aI0
aI0
aI0
aI0
aI0
aI0
aI0
aI0
aI0
aI0
aI0
aI0
aI0
aI0
aI0
aI00
aI662086
aI-472568
aI0
aI0
aI0
aI0
aI0
aI0
aI189518
aI1200000
aI27610
aI-144062
aI0
aS'wes.colwell@enron.com'
p241
aI0
aI16514
aF40.0
aI40
aF0.13651877133105803
aF240.0
aF11.0
aI0
aI0
aI101740
aI01
aI698242
aI0
aI288542
aI1132
aF1758.0
aI1758
aF0.275
aI1490344
aI698242
aI0
aI0
aI0
aI0
aS'bill.cordes@enron.com'
p242
aI651850
aI0
aF12.0
aI12
aF0.013089005235602094
aF10.0
aF0.0
aI0
aI0
aI0
aI00
aI386335
aI0
aI0
aI58
aF764.0
aI764
aI0
aI0
aI1038185
aI800000
aI0
aI-41250
aI0
aS'chip.cox@enron.com'
p243
aI117551
aI27861
aF33.0
aI33
aI0
aF0.0
aF4.0
aI0
aI0
aI494
aI00
aI378082
aI0
aI314288
aI71
aF102.0
aI102
aF0.12121212121212122
aI1101393
aI495633
aI325000
aI0
aI0
aI0
aI0
aI0
aI22344
aI0
aI0
aI0
aI0
aI0
aI0
aI275000
aI713
aI00
aI207940
aI0
aI184899
aI0
aI0
aI0
aI0
aI807956
aI207940
aI600000
aI0
aI0
aI0
aS'joseph.deffner@enron.com'
p244
aI17378
aI41626
aF74.0
aI74
aF0.16106442577030813
aF115.0
aF4.0
aI0
aI335349
aI25553
aI00
aI141833
aI0
aI206121
aI552
aF714.0
aI714
aF0.05405405405405406
aI1208649
aI159211
aI3000000
aI0
aI0
aI0
aS'david.delainey@enron.com'
p245
aI2291113
aI86174
aF3069.0
aI3069
aF0.02133850630455868
aF66.0
aF609.0
aI0
aI1294981
aI1661
aI01
aI1323148
aI0
aI365163
aI2097
aF3093.0
aI3093
aF0.198435972629521
aI4747979
aI3614261
aI800000
aI0
aI-1284000
aI0
aS'james.derrick@enron.com'
p246
aI8831913
aI51124
aF909.0
aI909
aF0.029344337459880788
aF64.0
aF20.0
aI0
aI484000
aI7482
aI00
aI1787380
aI-1787380
aI492375
aI1401
aF2181.0
aI2181
aF0.022002200220022004
aI550981
aI8831913
aI425000
aI875307
aI-775241
aI0
aS'timothy.detmering@enron.com'
p247
aI2027865
aI52255
aI0
aI0
aI0
aI0
aI0
aI0
aI415657
aI1105
aI00
aI315068
aI-315068
aI210500
aI0
aI0
aI0
aI0
aI1204583
aI2027865
aI600000
aI0
aI0
aI0
aS'janet.dietrich@enron.com'
p248
aI1550019
aI3475
aF63.0
aI63
aF0.11858475894245724
aF305.0
aF14.0
aI0
aI556416
aI473
aI00
aI315068
aI0
aI250100
aI1902
aF2572.0
aI2572
aF0.2222222222222222
aI1410464
aI1865087
aI1000000
aI0
aI0
aI0
aS'richard.dimichele@enron.com'
p249
aI8191755
aI35812
aI0
aI0
aI0
aI0
aI0
aI0
aI694862
aI374689
aI00
aI126027
aI0
aI262788
aI0
aI0
aI0
aI0
aI2368151
aI8317782
aI70000
aI0
aI0
aI0
aS'keith.dodson@enron.com'
p250
aI0
aI28164
aF14.0
aI14
aF0.056818181818181816
aF10.0
aF3.0
aI0
aI0
aI774
aI00
aI0
aI0
aI221003
aI114
aF176.0
aI176
aF0.21428571428571427
aI319941
aI0
aI800000
aI0
aI-300000
aI0
aS'jeff.donahue@enron.com'
p251
aI765920
aI96268
aF22.0
aI22
aF0.21734104046242775
aF188.0
aF11.0
aI0
aI0
aI891
aI00
aI315068
aI0
aI278601
aI772
aF865.0
aI865
aF0.5
aI875760
aI1080988
aI0
aI0
aI-25000
aI102492
aI0
aI371750
aI0
aI0
aI0
aI0
aI0
aI0
aI0
aI0
aI0
aI00
aI0
aI0
aI0
aI0
aI0
aI0
aI0
aI77492
aI371750
aI750000
aI0
aI0
aI0
aS'w.duran@enron.com'
p252
aI1451869
aI25785
aF12.0
aI12
aF0.1172566371681416
aF106.0
aF3.0
aI0
aI1105218
aI1568
aI00
aI189041
aI0
aI210692
aI599
aF904.0
aI904
aF0.25
aI2093263
aI1640910
aI200000
aI0
aI0
aI0
aS'john.echols@enron.com'
p253
aI601438
aI21530
aI0
aI0
aI0
aI0
aI0
aI0
aI2234774
aI53775
aI00
aI407503
aI0
aI182245
aI0
aI0
aI0
aI0
aI2692324
aI1008941
aI350000
aI0
aI-400729
aI0
aS'steven.elliott@enron.com'
p254
aI4890344
aI78552
aI0
aI0
aI0
aI0
aI0
aI0
aI0
aI12961
aI00
aI1788391
aI0
aI170941
aI0
aI0
aI0
aI0
aI211725
aI6678735
aI2500000
aI0
aI0
aI0
aS'jim.fallon@enron.com'
p255
aI940257
aI95924
aF75.0
aI75
aF0.023931623931623933
aF42.0
aF37.0
aI0
aI374347
aI401481
aI00
aI1392142
aI0
aI304588
aI1604
aF1755.0
aI1755
aF0.49333333333333335
aI3676340
aI2332399
aI1300000
aI0
aI-1386055
aI0
aS'andrew.fastow@enron.com'
p256
aI0
aI55921
aI0
aI0
aI0
aI0
aI0
aI0
aI1736055
aI277464
aI01
aI1794412
aI0
aI440698
aI0
aI0
aI0
aI0
aI2424083
aI1794412
aI350000
aI0
aI0
aI0
aS'jay.fitzgerald@enron.com'
p257
aI664461
aI23870
aF16.0
aI16
aF0.0010683760683760685
aF1.0
aF8.0
aI0
aI556416
aI285414
aI00
aI956775
aI0
aI199157
aI723
aF936.0
aI936
aF0.5
aI1414857
aI1621236
aI0
aI0
aI0
aI0
aS'kulvinder.fowler@enron.com'
p258
aI1324578
aI0
aF36.0
aI36
aI0
aF0.0
aF0.0
aI0
aI0
aI0
aI00
aI560170
aI0
aI0
aI10
aF517.0
aI517
aI0
aI0
aI1884748
aI0
aI181755
aI0
aI0
aS'tracy.foy@enron.com'
p259
aI343434
aI0
aF13.0
aI13
aI0
aF0.0
aF0.0
aI0
aI0
aI0
aI00
aI0
aI0
aI0
aI2
aF57.0
aI57
aI0
aI181755
aI343434
aI2000000
aI6426990
aI-3367011
aI0
aS'mark.frevert@enron.com'
p260
aI10433518
aI86987
aF21.0
aI21
aF0.07389312977099237
aF242.0
aF6.0
aI2000000
aI1617011
aI7427621
aI00
aI4188667
aI0
aI1060932
aI2979
aF3275.0
aI3275
aF0.2857142857142857
aI17252530
aI14622185
aI0
aI50591
aI0
aI0
aI0
aI176378
aI0
aI0
aI0
aI0
aI0
aI0
aI0
aI0
aI0
aI00
aI0
aI0
aI0
aI0
aI0
aI0
aI0
aI50591
aI176378
aI509870
aI73122
aI-1042
aI0
aI0
aI83237
aI50080
aI0
aI0
aI0
aI0
aI0
aI0
aI0
aI76547
aI00
aI235370
aI0
aI192008
aI0
aI0
aI0
aI0
aI900585
aI318607
aI850000
aI0
aI0
aI0
aS'kevin.garland@enron.com'
p261
aI636246
aI48405
aF44.0
aI44
aF0.04784688995215311
aF10.0
aF27.0
aI0
aI375304
aI60814
aI00
aI259907
aI0
aI231946
aI178
aF209.0
aI209
aF0.6136363636363636
aI1566469
aI896153
aI0
aI0
aI0
aI0
aI0
aI1753766
aI0
aI0
aI0
aI0
aI0
aI0
aI0
aI0
aI0
aI00
aI264013
aI-72419
aI0
aI0
aI0
aI0
aI0
aI0
aI1945360
aI0
aI504610
aI0
aI0
aS'dana.gibbs@enron.com'
p262
aI2218275
aI0
aF12.0
aI12
aI0
aF0.0
aF0.0
aI0
aI461912
aI0
aI00
aI0
aI0
aI0
aI23
aF169.0
aI169
aI0
aI966522
aI2218275
aI0
aI0
aI0
aI0
aI0
aI9803
aI0
aI0
aI0
aI0
aI0
aI0
aI0
aI0
aI0
aI00
aI75838
aI0
aI0
aI0
aI0
aI0
aI0
aI0
aI85641
aI600000
aI0
aI0
aI0
aS'ben.glisan@enron.com'
p263
aI384728
aI125978
aF16.0
aI16
aF0.05956471935853379
aF52.0
aF6.0
aI0
aI71023
aI200308
aI01
aI393818
aI0
aI274975
aI874
aF873.0
aI873
aF0.375
aI1272284
aI778546
aI750000
aI0
aI0
aI0
aS'joe.gold@enron.com'
p264
aI436515
aI0
aI0
aI0
aI0
aI0
aI0
aI0
aI304805
aI819288
aI00
aI441096
aI0
aI272880
aI0
aI0
aI0
aI0
aI2146973
aI877611
aI0
aI0
aI0
aI119292
aI0
aI0
aI0
aI0
aI0
aI0
aI0
aI0
aI0
aI0
aI0
aI00
aI0
aI0
aI0
aI0
aI0
aI0
aI0
aI119292
aI0
aI0
aI93585
aI0
aI0
aI0
aI0
aI0
aI0
aI0
aI0
aI0
aI0
aI0
aI365625
aI680833
aI00
aI0
aI0
aI6615
aI0
aI0
aI0
aI0
aI1146658
aI0
aI1150000
aI2157527
aI-934484
aI0
aS'mark.haedicke@enron.com'
p265
aI608750
aI76169
aF1941.0
aI1941
aF0.04489897730107259
aF180.0
aF61.0
aI0
aI983346
aI52382
aI00
aI524169
aI-329825
aI374125
aI1847
aF4009.0
aI4009
aF0.03142709943328181
aI3859065
aI803094
aI1500000
aI0
aI-3117011
aI0
aS'kevin.hannon@enron.com'
p266
aI5538001
aI34039
aF32.0
aI32
aF0.03062200956937799
aF32.0
aF21.0
aI0
aI1617011
aI11350
aI01
aI853064
aI0
aI243293
aI1035
aF1045.0
aI1045
aF0.65625
aI288682
aI6391065
aI0
aI0
aI0
aI0
aS'david.haug@enron.com'
p267
aI0
aI475
aF19.0
aI19
aF0.006980802792321117
aF4.0
aF7.0
aI0
aI0
aI0
aI00
aI2217299
aI0
aI0
aI471
aF573.0
aI573
aF0.3684210526315789
aI475
aI2217299
aI0
aI7961
aI0
aI0
aS'robert.hayes@enron.com'
p268
aI0
aI0
aF12.0
aI12
aF0.031746031746031744
aF16.0
aF0.0
aI0
aI0
aI0
aI00
aI151418
aI0
aI0
aI50
aF504.0
aI504
aI0
aI7961
aI151418
aI0
aI0
aI0
aI0
aS'rod.hayslett@enron.com'
p269
aI0
aI0
aF1061.0
aI1061
aF0.01321253303133258
aF35.0
aF38.0
aI0
aI0
aI0
aI00
aI346663
aI0
aI0
aI571
aF2649.0
aI2649
aF0.03581526861451461
aI0
aI346663
aI700000
aI0
aI-280000
aI0
aS'robert.hermann@enron.com'
p270
aI187500
aI48357
aI0
aI0
aI0
aI0
aI0
aI0
aI150000
aI416441
aI00
aI480632
aI0
aI262663
aI0
aI0
aI0
aI0
aI1297461
aI668132
aI1700000
aI0
aI0
aI0
aS'gary.hickerson@enron.com'
p271
aI0
aI98849
aF27.0
aI27
aF0.030303030303030304
aF40.0
aF1.0
aI0
aI69223
aI1936
aI00
aI441096
aI0
aI211788
aI900
aF1320.0
aI1320
aF0.037037037037037035
aI2081796
aI441096
aI0
aI10259
aI0
aI0
aS'joe.hirko@enron.com'
p272
aI30766064
aI77978
aI0
aI0
aI0
aI0
aI0
aI0
aI0
aI2856
aI01
aI0
aI0
aI0
aI0
aI0
aI0
aI0
aI91093
aI30766064
aI0
aI3131860
aI0
aI0
aS'stanley.horton@enron.com'
p273
aI5210569
aI0
aF1073.0
aI1073
aF0.01872340425531915
aF44.0
aF15.0
aI0
aI0
aI0
aI00
aI2046079
aI0
aI0
aI1074
aF2350.0
aI2350
aF0.013979496738117428
aI3131860
aI7256648
aI0
aI0
aI0
aI0
aS'james.hughes@enron.com'
p274
aI754966
aI0
aF34.0
aI34
aF0.048678720445062586
aF35.0
aF5.0
aI0
aI0
aI0
aI00
aI363428
aI0
aI0
aI589
aF719.0
aI719
aF0.14705882352941177
aI0
aI1118394
aI0
aI2964506
aI0
aI0
aS'gene.humphrey@enron.com'
p275
aI2282768
aI4994
aF17.0
aI17
aF0.078125
aF10.0
aF17.0
aI0
aI0
aI0
aI00
aI0
aI0
aI130724
aI119
aF128.0
aI128
aF1.0
aI3100224
aI2282768
aI0
aI0
aI0
aI0
aS'larry.izzo@enron.com'
p276
aI2165172
aI28093
aF19.0
aI19
aF0.056451612903225805
aF28.0
aF5.0
aI0
aI312500
aI1553729
aI00
aI3654808
aI0
aI85274
aI437
aF496.0
aI496
aF0.2631578947368421
aI1979596
aI5819980
aI250000
aI0
aI0
aI0
aS'charlene.jackson@enron.com'
p277
aI185063
aI10181
aF56.0
aI56
aF0.09689922480620156
aF25.0
aF19.0
aI0
aI0
aI2435
aI00
aI540672
aI0
aI288558
aI117
aF258.0
aI258
aF0.3392857142857143
aI551174
aI725735
aI0
aI0
aI-25000
aI108750
aI0
aI431750
aI0
aI0
aI0
aI0
aI0
aI0
aI0
aI0
aI0
aI00
aI44093
aI-44093
aI0
aI0
aI0
aI0
aI0
aI83750
aI431750
aI400000
aI0
aI0
aI0
aS'vince.kaminski@enron.com'
p278
aI850010
aI83585
aF14368.0
aI14368
aF0.008899500759713479
aF41.0
aF171.0
aI0
aI323466
aI4669
aI00
aI126027
aI0
aI275101
aI583
aF4607.0
aI4607
aF0.011901447661469933
aI1086821
aI976037
aI1000000
aI0
aI0
aI0
aS'steven.kean@enron.com'
p279
aI2022048
aI41953
aF6759.0
aI6759
aF0.010976948408342482
aF140.0
aF387.0
aI0
aI300000
aI1231
aI00
aI4131594
aI0
aI404338
aI3639
aF12754.0
aI12754
aF0.05725699067909454
aI1747522
aI6153642
aI0
aI0
aI-51042
aI0
aS'joe.kishkill@enron.com'
p280
aI0
aI116335
aI0
aI0
aI0
aI0
aI0
aI0
aI0
aI465357
aI00
aI1034346
aI0
aI174246
aI0
aI0
aI0
aI0
aI704896
aI1034346
aI3100000
aI0
aI0
aI0
aS'louise.kitchen@enron.com'
p281
aI81042
aI5774
aF1728.0
aI1728
aF0.030222757375075255
aF251.0
aF194.0
aI0
aI0
aI93925
aI00
aI466101
aI0
aI271442
aI3669
aF8305.0
aI8305
aF0.11226851851851852
aI3471141
aI547143
aI700000
aI0
aI0
aI0
aS'mark.koenig@enron.com'
p282
aI671737
aI127017
aF61.0
aI61
aF0.02232518955349621
aF53.0
aF15.0
aI0
aI300000
aI150458
aI01
aI1248318
aI0
aI309946
aI2271
aF2374.0
aI2374
aF0.2459016393442623
aI1587421
aI1920055
aI800000
aI0
aI0
aI0
aS'michael.kopper@enron.com'
p283
aI0
aI118134
aI0
aI0
aI0
aI0
aI0
aI0
aI602671
aI907502
aI01
aI985032
aI0
aI224305
aI0
aI0
aI0
aI0
aI2652612
aI985032
aI8000000
aI0
aI0
aI0
aS'john.lavorato@enron.com'
p284
aI4158995
aI49537
aF2585.0
aI2585
aF0.07273729163796666
aF528.0
aF411.0
aI0
aI2035380
aI1552
aI00
aI1008149
aI0
aI339288
aI3962
aF7259.0
aI7259
aF0.15899419729206962
aI10425757
aI5167144
aI7000000
aI202911
aI-300000
aI0
aS'kenneth.lay@enron.com'
p285
aI34348384
aI99832
aF36.0
aI36
aF0.028785396676807865
aF123.0
aF16.0
aI81525000
aI3600000
aI10359729
aI01
aI14761694
aI0
aI1072321
aI2411
aF4273.0
aI4273
aF0.4444444444444444
aI103559793
aI49110078
aI1000000
aI0
aI0
aI0
aS'dan.leff@enron.com'
p286
aI0
aI0
aF63.0
aI63
aF0.02374202693125443
aF67.0
aF14.0
aI0
aI1387399
aI3083
aI00
aI360528
aI0
aI273746
aI2672
aF2822.0
aI2822
aF0.2222222222222222
aI2664228
aI360528
aI0
aI0
aI-25000
aI112492
aI0
aI412878
aI0
aI0
aI0
aI0
aI0
aI0
aI0
aI0
aI0
aI00
aI0
aI0
aI0
aI0
aI0
aI0
aI0
aI87492
aI412878
aI0
aI0
aI0
aI0
aS'richard.lewis@enron.com'
p287
aI850477
aI0
aF26.0
aI26
aF0.01050420168067227
aF10.0
aF0.0
aI0
aI0
aI0
aI00
aI0
aI0
aI0
aI739
aF952.0
aI952
aI0
aI0
aI850477
aI200000
aI204075
aI0
aI0
aS'tod.lindholm@enron.com'
p288
aI2549361
aI57727
aI0
aI0
aI0
aI0
aI0
aI0
aI175000
aI2630
aI00
aI514847
aI0
aI236457
aI0
aI0
aI0
aI0
aI875889
aI3064208
aI0
aI0
aI0
aI0
aI0
aI0
aI0
aI0
aI0
aI0
aI0
aI0
aI0
aI0
aI0
aI00
aI0
aI0
aI0
aI0
aI0
aI0
aI0
aI0
aI0
aI0
aI0
aI0
aI0
aI0
aI372205
aI0
aI0
aI0
aI0
aI0
aI0
aI0
aI0
aI0
aI00
aI153686
aI-153686
aI0
aI0
aI0
aI0
aI0
aI0
aI372205
aI0
aI85430
aI0
aI0
aS'a..martin@enron.com'
p289
aI2070306
aI8211
aF230.0
aI230
aF0.005256241787122208
aF8.0
aF0.0
aI0
aI5145434
aI2818454
aI00
aI0
aI0
aI349487
aI477
aF1522.0
aI1522
aI0
aI8407016
aI2070306
aI0
aI0
aI0
aI0
aS'danny.mccarty@enron.com'
p290
aI664375
aI0
aF215.0
aI215
aF0.017445917655268667
aF25.0
aF2.0
aI0
aI0
aI0
aI00
aI94556
aI0
aI0
aI508
aF1433.0
aI1433
aF0.009302325581395349
aI0
aI758931
aI900000
aI0
aI-125000
aI0
aS'george.mcclellan@enron.com'
p291
aI506765
aI228763
aF49.0
aI49
aF0.02981651376146789
aF52.0
aF0.0
aI0
aI0
aI51587
aI00
aI441096
aI0
aI263413
aI1469
aF1744.0
aI1744
aI0
aI1318763
aI947861
aI1100000
aI0
aI0
aI0
aS'mike.mcconnell@enron.com'
p292
aI1623010
aI81364
aF2742.0
aI2742
aF0.02763592670471613
aF92.0
aF194.0
aI0
aI554422
aI540
aI00
aI1478269
aI0
aI365038
aI2189
aF3329.0
aI3329
aF0.07075127644055434
aI2101364
aI3101279
aI0
aI0
aI0
aI0
aS'rebecca.mcdonald@enron.com'
p293
aI757301
aI0
aF13.0
aI13
aF0.06040268456375839
aF54.0
aF1.0
aI0
aI0
aI0
aI00
aI934065
aI0
aI0
aI720
aF894.0
aI894
aF0.07692307692307693
aI0
aI1691366
aI2600000
aI0
aI0
aI0
aS'jeffrey.mcmahon@enron.com'
p294
aI1104054
aI137108
aF48.0
aI48
aF0.024628450106157114
aF58.0
aF26.0
aI0
aI694862
aI297353
aI00
aI558801
aI0
aI370448
aI2228
aF2355.0
aI2355
aF0.5416666666666666
aI4099771
aI1662855
aI0
aI0
aI-103750
aI103750
aI0
aI0
aI148
aI0
aI0
aI0
aI0
aI0
aI0
aI0
aI0
aI00
aI0
aI0
aI0
aI0
aI0
aI0
aI0
aI148
aI0
aI600000
aI0
aI0
aI0
aS'mark.metts@enron.com'
p295
aI0
aI94299
aF29.0
aI29
aF0.04708798017348203
aF38.0
aF1.0
aI0
aI0
aI1740
aI00
aI585062
aI0
aI365788
aI702
aF807.0
aI807
aF0.034482758620689655
aI1061827
aI585062
aI0
aI0
aI-38346
aI38346
aI0
aI0
aI2151
aI0
aI0
aI0
aI0
aI0
aI0
aI0
aI0
aI00
aI0
aI0
aI0
aI0
aI0
aI0
aI0
aI2151
aI0
aI0
aI1848227
aI0
aI0
aS'rockford.meyer@enron.com'
p296
aI493489
aI0
aF28.0
aI28
aI0
aF0.0
aF0.0
aI0
aI0
aI0
aI00
aI462384
aI0
aI0
aI22
aF232.0
aI232
aI0
aI1848227
aI955873
aI0
aI0
aI0
aI0
aS'michael.moran@enron.com'
p297
aI59539
aI0
aF19.0
aI19
aI0
aF0.0
aF0.0
aI0
aI0
aI0
aI00
aI161602
aI0
aI0
aI127
aF672.0
aI672
aI0
aI0
aI221141
aI325000
aI0
aI0
aI0
aS'kristina.mordaunt@enron.com'
p298
aI0
aI35018
aI0
aI0
aI0
aI0
aI0
aI0
aI0
aI1411
aI00
aI208510
aI0
aI267093
aI0
aI0
aI0
aI0
aI628522
aI208510
aI1100000
aI842924
aI-719000
aI0
aS's..muller@enron.com'
p299
aI1056320
aI0
aF16.0
aI16
aF0.08823529411764706
aF12.0
aF0.0
aI0
aI1725545
aI947
aI00
aI360528
aI0
aI251654
aI114
aF136.0
aI136
aI0
aI3202070
aI1416848
aI400000
aI0
aI0
aI0
aS'julia.murray@enron.com'
p300
aI400478
aI57580
aF45.0
aI45
aF0.005018248175182482
aF11.0
aF2.0
aI0
aI125000
aI330
aI00
aI196983
aI0
aI229284
aI395
aF2192.0
aI2192
aF0.044444444444444446
aI812194
aI597461
aI0
aI774401
aI0
aI0
aI0
aI0
aI0
aI0
aI0
aI0
aI0
aI0
aI0
aI0
aI0
aI00
aI463261
aI-94556
aI0
aI0
aI0
aI0
aI0
aI774401
aI368705
aI750000
aI77716
aI0
aI0
aS'cindy.olson@enron.com'
p301
aI1637034
aI63791
aF52.0
aI52
aF0.016891891891891893
aF20.0
aF15.0
aI0
aI100000
aI972
aI00
aI969729
aI0
aI329078
aI856
aF1184.0
aI1184
aF0.28846153846153844
aI1321557
aI2606763
aI0
aI0
aI0
aI0
aS'jere.overdyke@enron.com'
p302
aI5266578
aI18834
aI0
aI0
aI0
aI0
aI0
aI0
aI135836
aI176
aI00
aI2041016
aI0
aI94941
aI0
aI0
aI0
aI0
aI249787
aI7307594
aI1000000
aI0
aI0
aI0
aS'lou.pai@enron.com'
p303
aI15364167
aI32047
aI0
aI0
aI0
aI0
aI0
aI0
aI0
aI1829457
aI00
aI8453763
aI0
aI261879
aI0
aI0
aI0
aI0
aI3123383
aI23817930
aI0
aI0
aI-101250
aI101250
aI0
aI0
aI27942
aI0
aI0
aI0
aI0
aI0
aI0
aI0
aI0
aI00
aI0
aI0
aI0
aI0
aI0
aI0
aI0
aI27942
aI0
aI300000
aI0
aI0
aI0
aS'mark.pickering@enron.com'
p304
aI28798
aI31653
aF67.0
aI67
aF0.0077951002227171495
aF7.0
aF0.0
aI400000
aI0
aI0
aI00
aI0
aI0
aI655037
aI728
aF898.0
aI898
aI0
aI1386690
aI28798
aI400000
aI1130036
aI-33333
aI0
aS'greg.piper@enron.com'
p305
aI880290
aI43057
aF222.0
aI222
aF0.049273021001615507
aF61.0
aF48.0
aI0
aI0
aI778
aI00
aI409554
aI-409554
aI197091
aI742
aF1238.0
aI1238
aF0.21621621621621623
aI1737629
aI880290
aI0
aI0
aI0
aI0
aS'jim.piro@enron.com'
p306
aI0
aI0
aF16.0
aI16
aI0
aF0.0
aF1.0
aI0
aI0
aI0
aI00
aI47304
aI0
aI0
aI3
aF58.0
aI58
aF0.0625
aI0
aI47304
aI0
aI0
aI-17500
aI17500
aS'ken.powers@enron.com'
p307
aI0
aI0
aF26.0
aI26
aI0
aF0.0
aF0.0
aI0
aI0
aI0
aI00
aI0
aI0
aI0
aI12
aF653.0
aI653
aI0
aI0
aI0
aI0
aI564348
aI0
aI0
aS'james.prentice@enron.com'
p308
aI886231
aI0
aI0
aI0
aI0
aI0
aI0
aI0
aI0
aI0
aI00
aI208809
aI0
aI0
aI0
aI0
aI0
aI0
aI564348
aI1095040
aI0
aI0
aI0
aI0
aS'brian.redmond@enron.com'
p309
aI7509039
aI14689
aF221.0
aI221
aF0.12208258527827648
aF204.0
aF49.0
aI0
aI0
aI0
aI00
aI381285
aI0
aI96840
aI1063
aF1671.0
aI1671
aF0.22171945701357465
aI111529
aI7890324
aI100000
aI51365
aI-200000
aI0
aI0
aI4160672
aI8409
aI0
aI0
aI0
aI0
aI0
aI0
aI156250
aI202052
aI00
aI201483
aI-140264
aI76399
aI0
aI0
aI0
aI0
aI394475
aI4221891
aI1750000
aI0
aI-3504386
aI0
aS'ken.rice@enron.com'
p310
aI19794175
aI46950
aF18.0
aI18
aF0.04640883977900553
aF42.0
aF4.0
aI0
aI1617011
aI174839
aI01
aI2748364
aI0
aI420636
aI864
aF905.0
aI905
aF0.2222222222222222
aI505050
aI22542539
aI700000
aI214678
aI-100000
aI0
aS'paula.rieker@enron.com'
p311
aI1635238
aI33271
aF82.0
aI82
aF0.02635542168674699
aF35.0
aF48.0
aI0
aI0
aI1950
aI01
aI283649
aI0
aI249201
aI1258
aF1328.0
aI1328
aF0.5853658536585366
aI1099100
aI1918887
aI0
aI0
aI-121284
aI125034
aI0
aI0
aI0
aI0
aI0
aI0
aI0
aI0
aI0
aI0
aI0
aI00
aI0
aI0
aI0
aI0
aI0
aI0
aI0
aI3750
aI0
aI0
aI0
aI0
aI0
aS'matthew.scrimshaw@enron.com'
p312
aI759557
aI0
aI0
aI0
aI0
aI0
aI0
aI0
aI0
aI0
aI00
aI0
aI0
aI0
aI0
aI0
aI0
aI0
aI0
aI759557
aI2000000
aI0
aI0
aI0
aS'jeffrey.shankman@enron.com'
p313
aI1441898
aI178979
aF2681.0
aI2681
aF0.029183483390251473
aF94.0
aF83.0
aI0
aI554422
aI1191
aI00
aI630137
aI0
aI304110
aI1730
aF3221.0
aI3221
aF0.030958597538232
aI3038702
aI2072035
aI650000
aI0
aI0
aI0
aS'richard.shapiro@enron.com'
p314
aI607837
aI137767
aF1215.0
aI1215
aF0.0048848108786058485
aF74.0
aF65.0
aI0
aI0
aI705
aI00
aI379164
aI0
aI269076
aI4527
aF15149.0
aI15149
aF0.053497942386831275
aI1057548
aI987001
aI600000
aI187469
aI0
aI0
aS'vicki.sharp@enron.com'
p315
aI281073
aI116337
aF136.0
aI136
aF0.007653061224489796
aF24.0
aF6.0
aI0
aI422158
aI2401
aI00
aI213063
aI0
aI248146
aI2477
aF3136.0
aI3136
aF0.04411764705882353
aI1576511
aI494136
aI200000
aI0
aI-4167
aI0
aS'rex.shelby@enron.com'
p316
aI1624396
aI22884
aF39.0
aI39
aF0.057777777777777775
aF13.0
aF14.0
aI0
aI0
aI1573324
aI01
aI869220
aI0
aI211844
aI91
aF225.0
aI225
aF0.358974358974359
aI2003885
aI2493616
aI0
aI0
aI0
aI0
aS'jeffrey.sherrick@enron.com'
p317
aI1426469
aI0
aF25.0
aI25
aF0.0636215334420881
aF39.0
aF18.0
aI0
aI0
aI0
aI00
aI405999
aI0
aI0
aI583
aF613.0
aI613
aF0.72
aI0
aI1832468
aI1500000
aI0
aI0
aI0
aS'john.sherriff@enron.com'
p318
aI1835558
aI0
aF92.0
aI92
aF0.008785691873235017
aF28.0
aF23.0
aI0
aI554422
aI1852186
aI00
aI1293424
aI0
aI428780
aI2103
aF3187.0
aI3187
aF0.25
aI4335388
aI3128982
aI5600000
aI0
aI0
aI0
aS'jeff.skilling@enron.com'
p319
aI19250000
aI29336
aF108.0
aI108
aF0.0242624758753791
aF88.0
aF30.0
aI0
aI1920000
aI22122
aI01
aI6843672
aI0
aI1111258
aI2042
aF3627.0
aI3627
aF0.2777777777777778
aI8682716
aI26093672
aI500000
aI0
aI0
aI0
aS'frank.stabler@enron.com'
p320
aI0
aI16514
aI0
aI0
aI0
aI0
aI0
aI0
aI0
aI356071
aI00
aI511734
aI0
aI239502
aI0
aI0
aI0
aI0
aI1112087
aI511734
aI100000
aI181993
aI0
aI0
aI0
aI1362375
aI0
aI0
aI0
aI0
aI0
aI0
aI0
aI554422
aI162
aI00
aI0
aI0
aI162779
aI0
aI0
aI0
aI0
aI999356
aI1362375
aI700000
aI0
aI0
aI0
aS'marty.sunde@enron.com'
p321
aI0
aI0
aF38.0
aI38
aF0.013978088401964487
aF37.0
aF13.0
aI0
aI476451
aI111122
aI00
aI698920
aI0
aI257486
aI2565
aF2647.0
aI2647
aF0.34210526315789475
aI1545059
aI698920
aI600000
aI227449
aI0
aI0
aS'mitchell.taylor@enron.com'
p322
aI3181250
aI0
aF29.0
aI29
aI0
aF0.0
aF0.0
aI0
aI0
aI0
aI00
aI563798
aI0
aI265214
aI300
aF533.0
aI533
aI0
aI1092663
aI3745048
aI0
aI0
aI0
aI0
aI0
aI0
aI0
aI0
aI0
aI0
aI0
aI0
aI0
aI0
aI362096
aI00
aI0
aI0
aI0
aI0
aI0
aI0
aI0
aI362096
aI0
aI0
aI16586
aI0
aI0
aS'terence.thorn@enron.com'
p323
aI4452476
aI46145
aF41.0
aI41
aI0
aF0.0
aF0.0
aI0
aI200000
aI426629
aI00
aI365320
aI0
aI222093
aI73
aF266.0
aI266
aI0
aI911453
aI4817796
aI300000
aI0
aI-575000
aI0
aS'elizabeth.tilney@enron.com'
p324
aI591250
aI0
aF19.0
aI19
aF0.021739130434782608
aF10.0
aF11.0
aI0
aI275000
aI152055
aI00
aI576792
aI0
aI247338
aI379
aF460.0
aI460
aF0.5789473684210527
aI399393
aI1168042
aI788750
aI0
aI0
aI0
aS'adam.umanoff@enron.com'
p325
aI0
aI53122
aF18.0
aI18
aF0.10810810810810811
aF12.0
aF0.0
aI0
aI0
aI0
aI00
aI0
aI0
aI288589
aI41
aF111.0
aI111
aI0
aI1130461
aI0
aI0
aI0
aI-36666
aI36666
aI0
aI0
aI228656
aI0
aI0
aI0
aI0
aI0
aI0
aI0
aI0
aI00
aI0
aI0
aI0
aI0
aI0
aI0
aI0
aI228656
aI0
aI0
aI0
aI0
aI109298
aI0
aI0
aI103773
aI0
aI0
aI0
aI0
aI0
aI0
aI0
aI0
aI00
aI0
aI0
aI0
aI0
aI0
aI0
aI0
aI213071
aI0
aI850000
aI0
aI0
aI0
aS'rob.walls@enron.com'
p326
aI4346544
aI50936
aF146.0
aI146
aF0.02533532041728763
aF17.0
aF0.0
aI0
aI540751
aI2
aI00
aI1552453
aI0
aI357091
aI215
aF671.0
aI671
aI0
aI1798780
aI5898997
aI0
aI53625
aI0
aI0
aI0
aI1030329
aI33785
aI0
aI0
aI0
aI0
aI0
aI0
aI0
aI0
aI00
aI0
aI0
aI0
aI0
aI0
aI0
aI0
aI87410
aI1030329
aI325000
aI831299
aI-583325
aI0
aS'george.wasaff@enron.com'
p327
aI1668260
aI0
aF30.0
aI30
aF0.055
aF22.0
aF7.0
aI0
aI200000
aI1425
aI00
aI388167
aI0
aI259996
aI337
aF400.0
aI400
aF0.23333333333333334
aI1034395
aI2056427
aI0
aI0
aI-10800
aI0
aS'dick.westfahl@enron.com'
p328
aI0
aI51870
aI0
aI0
aI0
aI0
aI0
aI0
aI256191
aI401130
aI00
aI384930
aI0
aI63744
aI0
aI0
aI0
aI0
aI762135
aI384930
aI0
aI0
aI0
aI0
aI0
aI98718
aI0
aI0
aI0
aI0
aI0
aI0
aI0
aI0
aI0
aI00
aI0
aI0
aI0
aI0
aI0
aI0
aI0
aI0
aI98718
aI3000000
aI0
aI0
aI0
aS'greg.whalley@enron.com'
p329
aI3282960
aI57838
aF556.0
aI556
aF0.03090214321315833
aF186.0
aF24.0
aI0
aI808346
aI301026
aI00
aI2796177
aI0
aI510364
aI3920
aF6019.0
aI6019
aF0.04316546762589928
aI4677574
aI6079137
aI450000
aI0
aI0
aI0
aS'thomas.white@enron.com'
p330
aI1297049
aI81353
aI0
aI0
aI0
aI0
aI0
aI0
aI0
aI1085463
aI00
aI13847074
aI0
aI317543
aI0
aI0
aI0
aI0
aI1934359
aI15144123
aI0
aI0
aI-25000
aI108579
aI0
aI0
aI1413
aI0
aI0
aI0
aI0
aI0
aI0
aI0
aI0
aI00
aI0
aI0
aI0
aI0
aI0
aI0
aI0
aI84992
aI0
aI0
aI0
aI0
aI0
aS'john.wodraska@enron.com'
p331
aI0
aI0
aI0
aI0
aI0
aI0
aI0
aI0
aI0
aI189583
aI00
aI0
aI0
aI0
aI0
aI0
aI0
aI0
aI189583
aI0
aI0
aI0
aI0
aI0
aI0
aI139130
aI0
aI0
aI0
aI0
aI0
aI0
aI0
aI0
aI0
aI00
aI0
aI0
aI0
aI0
aI0
aI0
aI0
aI0
aI139130
aI0
aI0
aI0
aI0
aS'scott.yeager@enron.com'
p332
aI8308552
aI53947
aI0
aI0
aI0
aI0
aI0
aI0
aI0
aI147950
aI01
aI3576206
aI0
aI158403
aI0
aI0
aI0
aI0
aI360300
aI11884758
aI0
aI0
aI0
aI0
aI0
aI192758
aI55097
aI0
aI0
aI0
aI0
aI0
aI0
aI0
aI0
aI00
aI0
aI0
aI0
aI0
aI0
aI0
aI0
aI55097
aI192758
atp333
ba(lp334
g15
(g16
(dp335
g18
g19
(g20
(I0
tp336
g22
tp337
Rp338
(I1
(I145
tp339
g29
I00
(lp340
g33
ag34
ag35
ag36
ag37
ag38
ag39
ag40
ag41
ag42
ag43
ag44
ag45
ag46
ag47
ag48
ag49
ag50
ag51
ag52
ag53
ag54
ag55
ag56
ag57
ag58
ag59
ag60
ag61
ag62
ag63
ag64
ag65
ag66
ag67
ag68
ag69
ag70
ag71
ag72
ag73
ag74
ag75
ag76
ag77
ag78
ag79
ag80
ag81
ag82
ag83
ag84
ag85
ag86
ag87
ag88
ag89
ag90
ag91
ag92
ag93
ag94
ag95
ag96
ag97
ag98
ag99
ag100
ag101
ag102
ag103
ag104
ag105
ag106
ag107
ag108
ag109
ag110
ag111
ag112
ag113
ag114
ag115
ag116
ag117
ag118
ag119
ag120
ag121
ag122
ag123
ag124
ag125
ag126
ag127
ag128
ag129
ag130
ag131
ag132
ag133
ag134
ag135
ag136
ag137
ag138
ag139
ag140
ag141
ag142
ag143
ag144
ag145
ag146
ag147
ag148
ag149
ag150
ag151
ag152
ag153
ag154
ag155
ag156
ag157
ag158
ag159
ag160
ag161
ag162
ag163
ag164
ag165
ag166
ag167
ag168
ag169
ag170
ag171
ag172
ag173
ag174
ag175
ag176
ag177
atp341
bsg179
Nstp342
Rp343
a(dp344
S'0.14.1'
p345
(dp346
S'axes'
p347
g14
sS'blocks'
p348
(lp349
(dp350
S'mgr_locs'
p351
c__builtin__
slice
p352
(I0
I145
I1
tp353
Rp354
sS'values'
p355
g219
sasstp356
bsb.